target datalayout = "e-m:e-p270:32:32-p271:32:32-p272:64:64-i64:64-i128:128-f80:128-n8:16:32:64-S128"
target triple = "x86_64-pc-linux-gnu"

@.str.20 = private unnamed_addr constant [17 x i8] c"CVodeGetNumSteps\00", align 1
@.str.21 = private unnamed_addr constant [18 x i8] c"CVodeGetLastOrder\00", align 1
@.str.22 = private unnamed_addr constant [17 x i8] c"CVodeGetLastStep\00", align 1
@.str.23 = private unnamed_addr constant [59 x i8] c"t = %.2e   no. steps = %ld   order = %d   stepsize = %.2e\0A\00", align 1
@.str.24 = private unnamed_addr constant [55 x i8] c"c1 (bot.left/middle/top rt.) = %12.3e  %12.3e  %12.3e\0A\00", align 1
@.str.25 = private unnamed_addr constant [56 x i8] c"c2 (bot.left/middle/top rt.) = %12.3e  %12.3e  %12.3e\0A\0A\00", align 1
@stderr = external global ptr, align 8
@.str.51 = private unnamed_addr constant [55 x i8] c"\0ASUNDIALS_ERROR: %s() failed - returned NULL pointer\0A\0A\00", align 1
@.str.52 = private unnamed_addr constant [48 x i8] c"\0ASUNDIALS_ERROR: %s() failed with retval = %d\0A\0A\00", align 1
@.str.53 = private unnamed_addr constant [53 x i8] c"\0AMEMORY_ERROR: %s() failed - returned NULL pointer\0A\0A\00", align 1

; Function Attrs: nounwind uwtable
define internal i32 @check_retval(ptr noundef %0, ptr noundef %1, i32 noundef %2) #0 {
  %4 = alloca i32, align 4
  %5 = alloca ptr, align 8
  %6 = alloca ptr, align 8
  %7 = alloca i32, align 4
  %8 = alloca ptr, align 8
  %9 = alloca i32, align 4
  store ptr %0, ptr %5, align 8, !tbaa !9
  store ptr %1, ptr %6, align 8, !tbaa !23
  store i32 %2, ptr %7, align 4, !tbaa !12
  call void @llvm.lifetime.start.p0(i64 8, ptr %8) #6
  %10 = load i32, ptr %7, align 4, !tbaa !12
  %11 = icmp eq i32 %10, 0
  br i1 %11, label %12, label %19

12:                                               ; preds = %3
  %13 = load ptr, ptr %5, align 8, !tbaa !9
  %14 = icmp eq ptr %13, null
  br i1 %14, label %15, label %19

15:                                               ; preds = %12
  %16 = load ptr, ptr @stderr, align 8, !tbaa !25
  %17 = load ptr, ptr %6, align 8, !tbaa !23
  %18 = call i32 (ptr, ptr, ...) @fprintf(ptr noundef %16, ptr noundef @.str.51, ptr noundef %17) #6
  store i32 1, ptr %4, align 4
  store i32 1, ptr %9, align 4
  br label %47

19:                                               ; preds = %12, %3
  %20 = load i32, ptr %7, align 4, !tbaa !12
  %21 = icmp eq i32 %20, 1
  br i1 %21, label %22, label %34

22:                                               ; preds = %19
  %23 = load ptr, ptr %5, align 8, !tbaa !9
  store ptr %23, ptr %8, align 8, !tbaa !27
  %24 = load ptr, ptr %8, align 8, !tbaa !27
  %25 = load i32, ptr %24, align 4, !tbaa !12
  %26 = icmp slt i32 %25, 0
  br i1 %26, label %27, label %33

27:                                               ; preds = %22
  %28 = load ptr, ptr @stderr, align 8, !tbaa !25
  %29 = load ptr, ptr %6, align 8, !tbaa !23
  %30 = load ptr, ptr %8, align 8, !tbaa !27
  %31 = load i32, ptr %30, align 4, !tbaa !12
  %32 = call i32 (ptr, ptr, ...) @fprintf(ptr noundef %28, ptr noundef @.str.52, ptr noundef %29, i32 noundef %31) #6
  store i32 1, ptr %4, align 4
  store i32 1, ptr %9, align 4
  br label %47

33:                                               ; preds = %22
  br label %45

34:                                               ; preds = %19
  %35 = load i32, ptr %7, align 4, !tbaa !12
  %36 = icmp eq i32 %35, 2
  br i1 %36, label %37, label %44

37:                                               ; preds = %34
  %38 = load ptr, ptr %5, align 8, !tbaa !9
  %39 = icmp eq ptr %38, null
  br i1 %39, label %40, label %44

40:                                               ; preds = %37
  %41 = load ptr, ptr @stderr, align 8, !tbaa !25
  %42 = load ptr, ptr %6, align 8, !tbaa !23
  %43 = call i32 (ptr, ptr, ...) @fprintf(ptr noundef %41, ptr noundef @.str.53, ptr noundef %42) #6
  store i32 1, ptr %4, align 4
  store i32 1, ptr %9, align 4
  br label %47

44:                                               ; preds = %37, %34
  br label %45

45:                                               ; preds = %44, %33
  br label %46

46:                                               ; preds = %45
  store i32 0, ptr %4, align 4
  store i32 1, ptr %9, align 4
  br label %47

47:                                               ; preds = %46, %40, %27, %15
  call void @llvm.lifetime.end.p0(i64 8, ptr %8) #6
  %48 = load i32, ptr %4, align 4
  ret i32 %48
}

; Function Attrs: nounwind uwtable
define internal void @PrintOutput(ptr noundef %0, ptr noundef %1, double noundef %2) #0 {
  %4 = alloca ptr, align 8
  %5 = alloca ptr, align 8
  %6 = alloca double, align 8
  %7 = alloca i64, align 8
  %8 = alloca i32, align 4
  %9 = alloca i32, align 4
  %10 = alloca double, align 8
  %11 = alloca ptr, align 8
  %12 = alloca i32, align 4
  %13 = alloca i32, align 4
  %14 = alloca i32, align 4
  %15 = alloca i32, align 4
  store ptr %0, ptr %4, align 8, !tbaa !9
  store ptr %1, ptr %5, align 8, !tbaa !4
  store double %2, ptr %6, align 8, !tbaa !20
  call void @llvm.lifetime.start.p0(i64 8, ptr %7) #6
  call void @llvm.lifetime.start.p0(i64 4, ptr %8) #6
  call void @llvm.lifetime.start.p0(i64 4, ptr %9) #6
  call void @llvm.lifetime.start.p0(i64 8, ptr %10) #6
  call void @llvm.lifetime.start.p0(i64 8, ptr %11) #6
  call void @llvm.lifetime.start.p0(i64 4, ptr %12) #6
  store i32 4, ptr %12, align 4, !tbaa !12
  call void @llvm.lifetime.start.p0(i64 4, ptr %13) #6
  store i32 4, ptr %13, align 4, !tbaa !12
  call void @llvm.lifetime.start.p0(i64 4, ptr %14) #6
  store i32 9, ptr %14, align 4, !tbaa !12
  call void @llvm.lifetime.start.p0(i64 4, ptr %15) #6
  store i32 9, ptr %15, align 4, !tbaa !12
  %16 = load ptr, ptr %5, align 8, !tbaa !4
  %17 = call ptr @N_VGetArrayPointer(ptr noundef %16)
  store ptr %17, ptr %11, align 8, !tbaa !33
  %18 = load ptr, ptr %4, align 8, !tbaa !9
  %19 = call i32 @CVodeGetNumSteps(ptr noundef %18, ptr noundef %7)
  store i32 %19, ptr %9, align 4, !tbaa !12
  %20 = call i32 @check_retval(ptr noundef %9, ptr noundef @.str.20, i32 noundef 1)
  %21 = load ptr, ptr %4, align 8, !tbaa !9
  %22 = call i32 @CVodeGetLastOrder(ptr noundef %21, ptr noundef %8)
  store i32 %22, ptr %9, align 4, !tbaa !12
  %23 = call i32 @check_retval(ptr noundef %9, ptr noundef @.str.21, i32 noundef 1)
  %24 = load ptr, ptr %4, align 8, !tbaa !9
  %25 = call i32 @CVodeGetLastStep(ptr noundef %24, ptr noundef %10)
  store i32 %25, ptr %9, align 4, !tbaa !12
  %26 = call i32 @check_retval(ptr noundef %9, ptr noundef @.str.22, i32 noundef 1)
  %27 = load double, ptr %6, align 8, !tbaa !20
  %28 = load i64, ptr %7, align 8, !tbaa !21
  %29 = load i32, ptr %8, align 4, !tbaa !12
  %30 = load double, ptr %10, align 8, !tbaa !20
  %31 = call i32 (ptr, ...) @printf(ptr noundef @.str.23, double noundef %27, i64 noundef %28, i32 noundef %29, double noundef %30)
  %32 = load ptr, ptr %11, align 8, !tbaa !33
  %33 = getelementptr inbounds double, ptr %32, i64 0
  %34 = load double, ptr %33, align 8, !tbaa !20
  %35 = load ptr, ptr %11, align 8, !tbaa !33
  %36 = load i32, ptr %12, align 4, !tbaa !12
  %37 = mul nsw i32 %36, 2
  %38 = add nsw i32 0, %37
  %39 = load i32, ptr %13, align 4, !tbaa !12
  %40 = mul nsw i32 %39, 20
  %41 = add nsw i32 %38, %40
  %42 = sext i32 %41 to i64
  %43 = getelementptr inbounds double, ptr %35, i64 %42
  %44 = load double, ptr %43, align 8, !tbaa !20
  %45 = load ptr, ptr %11, align 8, !tbaa !33
  %46 = load i32, ptr %14, align 4, !tbaa !12
  %47 = mul nsw i32 %46, 2
  %48 = add nsw i32 0, %47
  %49 = load i32, ptr %15, align 4, !tbaa !12
  %50 = mul nsw i32 %49, 20
  %51 = add nsw i32 %48, %50
  %52 = sext i32 %51 to i64
  %53 = getelementptr inbounds double, ptr %45, i64 %52
  %54 = load double, ptr %53, align 8, !tbaa !20
  %55 = call i32 (ptr, ...) @printf(ptr noundef @.str.24, double noundef %34, double noundef %44, double noundef %54)
  %56 = load ptr, ptr %11, align 8, !tbaa !33
  %57 = getelementptr inbounds double, ptr %56, i64 1
  %58 = load double, ptr %57, align 8, !tbaa !20
  %59 = load ptr, ptr %11, align 8, !tbaa !33
  %60 = load i32, ptr %12, align 4, !tbaa !12
  %61 = mul nsw i32 %60, 2
  %62 = add nsw i32 1, %61
  %63 = load i32, ptr %13, align 4, !tbaa !12
  %64 = mul nsw i32 %63, 20
  %65 = add nsw i32 %62, %64
  %66 = sext i32 %65 to i64
  %67 = getelementptr inbounds double, ptr %59, i64 %66
  %68 = load double, ptr %67, align 8, !tbaa !20
  %69 = load ptr, ptr %11, align 8, !tbaa !33
  %70 = load i32, ptr %14, align 4, !tbaa !12
  %71 = mul nsw i32 %70, 2
  %72 = add nsw i32 1, %71
  %73 = load i32, ptr %15, align 4, !tbaa !12
  %74 = mul nsw i32 %73, 20
  %75 = add nsw i32 %72, %74
  %76 = sext i32 %75 to i64
  %77 = getelementptr inbounds double, ptr %69, i64 %76
  %78 = load double, ptr %77, align 8, !tbaa !20
  %79 = call i32 (ptr, ...) @printf(ptr noundef @.str.25, double noundef %58, double noundef %68, double noundef %78)
  call void @llvm.lifetime.end.p0(i64 4, ptr %15) #6
  call void @llvm.lifetime.end.p0(i64 4, ptr %14) #6
  call void @llvm.lifetime.end.p0(i64 4, ptr %13) #6
  call void @llvm.lifetime.end.p0(i64 4, ptr %12) #6
  call void @llvm.lifetime.end.p0(i64 8, ptr %11) #6
  call void @llvm.lifetime.end.p0(i64 8, ptr %10) #6
  call void @llvm.lifetime.end.p0(i64 4, ptr %9) #6
  call void @llvm.lifetime.end.p0(i64 4, ptr %8) #6
  call void @llvm.lifetime.end.p0(i64 8, ptr %7) #6
  ret void
}